; Function Attrs: nounwind uwtable
define ptr @l___private_Lean_Elab_Tactic_Try_0__Lean_Elab_Tactic_Try_mergeAll_x3f(ptr noundef %0, ptr noundef readonly captures(none) %1, ptr readnone captures(none) %2, ptr readnone captures(none) %3, ptr readnone captures(none) %4, ptr readnone captures(none) %5, ptr readnone captures(none) %6, ptr readnone captures(none) %7, ptr readnone captures(none) %8, ptr readnone captures(none) %9, ptr noundef %10) local_unnamed_addr #0 {
  %12 = getelementptr inbounds nuw i8, ptr %1, i64 16
  %13 = load ptr, ptr %12, align 8, !tbaa !4
  %14 = getelementptr inbounds nuw i8, ptr %13, i64 22
  %15 = load i8, ptr %14, align 1, !tbaa !15
  %16 = icmp eq i8 %15, 0
  br i1 %16, label %17, label %24

17:                                               ; preds = %11
  tail call void @lean_inc_heartbeat() #5
  %18 = tail call noalias ptr @mi_malloc_small(i64 noundef 24) #5
  %19 = icmp eq ptr %18, null
  br i1 %19, label %20, label %lean_alloc_ctor.exit

20:                                               ; preds = %17
  tail call void @lean_internal_panic_out_of_memory() #6
  unreachable

lean_alloc_ctor.exit:                             ; preds = %17
  %21 = getelementptr inbounds nuw i8, ptr %18, i64 4
  store i32 1, ptr %18, align 4, !tbaa !8
  store i32 131096, ptr %21, align 4
  %22 = getelementptr inbounds nuw i8, ptr %18, i64 8
  store ptr inttoptr (i64 1 to ptr), ptr %22, align 8, !tbaa !4
  %23 = getelementptr inbounds nuw i8, ptr %18, i64 16
  store ptr %10, ptr %23, align 8, !tbaa !4
  br label %36

24:                                               ; preds = %11
  %25 = tail call zeroext i8 @l_Array_isEmpty___rarg(ptr noundef %0) #5
  %26 = icmp eq i8 %25, 0
  br i1 %26, label %27, label %29

27:                                               ; preds = %24
  %28 = tail call ptr @l___private_Lean_Elab_Tactic_Try_0__Lean_Elab_Tactic_Try_mergeAll_x3f___lambda__3(ptr noundef %0, ptr nonnull poison, ptr nonnull poison, ptr poison, ptr poison, ptr poison, ptr poison, ptr poison, ptr poison, ptr poison, ptr poison, ptr noundef %10)
  br label %36

29:                                               ; preds = %24
  tail call void @lean_inc_heartbeat() #5
  %30 = tail call noalias ptr @mi_malloc_small(i64 noundef 24) #5
  %31 = icmp eq ptr %30, null
  br i1 %31, label %32, label %lean_alloc_ctor.exit28

32:                                               ; preds = %29
  tail call void @lean_internal_panic_out_of_memory() #6
  unreachable

lean_alloc_ctor.exit28:                           ; preds = %29
  %33 = getelementptr inbounds nuw i8, ptr %30, i64 4
  store i32 1, ptr %30, align 4, !tbaa !8
  store i32 131096, ptr %33, align 4
  %34 = getelementptr inbounds nuw i8, ptr %30, i64 8
  store ptr inttoptr (i64 1 to ptr), ptr %34, align 8, !tbaa !4
  %35 = getelementptr inbounds nuw i8, ptr %30, i64 16
  store ptr %10, ptr %35, align 8, !tbaa !4
  br label %36

36:                                               ; preds = %27, %lean_alloc_ctor.exit28, %lean_alloc_ctor.exit
  %.0 = phi ptr [ %18, %lean_alloc_ctor.exit ], [ %28, %27 ], [ %30, %lean_alloc_ctor.exit28 ]
  ret ptr %.0
}